Certificate:
    Data:
        Version: 3 (0x2)
        Serial Number: 1 (0x1)
    Signature Algorithm: sha512WithRSAEncryption
        Issuer: C=US, CN=ca.etcd.localhost, O=etcd-ca
        Validity
            Not Before: Jul 11 05:17:21 2017 GMT
            Not After : Jul  9 05:17:21 2027 GMT
        Subject: O=etcd-ca, CN=etcd0.localhost
        Subject Public Key Info:
            Public Key Algorithm: rsaEncryption
                Public-Key: (4096 bit)
                Modulus:
                    00:e4:74:d9:00:40:8e:93:b1:e4:64:27:b3:42:02:
                    51:f5:2b:d9:9e:d8:f6:16:f6:82:fc:e4:77:a1:03:
                    61:97:71:33:da:3e:15:33:70:af:3b:5f:f0:3d:ff:
                    e4:40:81:e3:c4:9a:a4:26:d6:be:c6:f5:e1:49:93:
                    fd:d2:d4:c7:4f:27:52:44:56:f9:8e:a2:dc:ee:ae:
                    41:b8:b7:bb:ff:0d:29:14:77:9a:2b:8d:61:88:01:
                    1b:e2:4c:2f:0c:ed:b1:b6:b9:0c:4a:ad:5d:b2:70:
                    58:4e:47:db:d4:e9:e6:30:8a:19:fd:73:02:ea:fb:
                    0a:f5:e1:39:e2:54:e0:0c:69:cb:5f:82:e6:ad:1f:
                    6c:d8:14:dc:da:13:63:6b:aa:6b:fc:3e:54:22:4a:
                    53:7d:ec:c6:36:c7:27:fa:31:c1:5c:3c:86:69:0f:
                    75:31:49:34:08:cc:3a:1b:4f:0e:66:d7:7c:ed:9f:
                    80:91:b8:82:43:1b:79:be:04:11:c7:f7:a5:22:cf:
                    2d:7a:7d:c8:e7:9d:5e:2a:d5:99:ec:14:fb:36:d2:
                    75:54:a6:ce:ec:8c:a0:65:f4:bb:2f:fa:0b:2b:9b:
                    b2:fd:9d:9f:9e:60:a5:2e:10:f9:b0:ad:30:0f:3a:
                    41:8c:d7:cd:dc:a0:57:81:32:7a:7e:95:c2:5f:7d:
                    b0:b8:74:0a:49:3b:1f:78:d6:50:ed:49:6e:c1:73:
                    c5:04:77:8c:62:2e:6f:68:62:eb:b8:38:91:e7:c0:
                    74:26:3d:d5:23:e3:76:a4:30:8c:b6:db:b8:24:05:
                    31:1a:78:a1:56:39:a4:0f:3d:f6:f3:7b:8b:53:83:
                    f8:55:ad:96:37:c7:ad:7e:34:5e:61:67:0a:ca:5e:
                    4c:63:20:ac:34:f9:bf:45:38:07:43:59:f6:f9:5a:
                    5a:72:c1:35:c7:86:2f:b8:d0:e0:b8:e9:88:f4:2a:
                    c8:69:02:ef:1f:c2:33:25:87:11:82:d6:8c:83:60:
                    55:ba:40:a3:1e:68:e0:84:18:c4:05:56:f5:46:d9:
                    60:18:2e:32:fb:19:a1:e7:f0:39:8e:dd:ac:54:58:
                    bb:e1:b5:6d:20:d5:ed:31:90:a3:f9:c0:19:6f:ac:
                    6f:c7:a2:69:99:9f:de:26:b5:d7:21:44:fb:96:39:
                    6c:c7:45:be:4f:34:fc:69:e4:d3:f4:1a:e6:52:32:
                    13:76:cf:ec:32:d4:bf:ec:6e:69:eb:11:3e:04:32:
                    fa:41:79:c5:9d:b3:6c:37:aa:8c:81:e8:59:11:2d:
                    d2:03:01:cb:a8:c4:55:e9:ff:a3:f4:92:57:a4:ca:
                    3f:67:41:2f:d2:9f:74:d7:da:ec:82:df:29:71:79:
                    67:cb:47
                Exponent: 65537 (0x10001)
        X509v3 extensions:
            X509v3 Basic Constraints: 
                CA:FALSE
            X509v3 Extended Key Usage: 
                TLS Web Client Authentication, TLS Web Server Authentication
            X509v3 Key Usage: 
                Digital Signature, Key Encipherment
            X509v3 Subject Alternative Name: 
                IP Address:127.0.0.1, IP Address:10.0.1.10
    Signature Algorithm: sha512WithRSAEncryption
         21:f4:18:fc:cc:1c:a5:bf:20:43:10:d6:58:3c:ad:09:12:63:
         ec:74:93:b9:74:dd:55:b1:9d:96:e6:53:46:5f:1d:2b:17:ab:
         a3:ac:8c:ef:26:7b:a2:82:12:68:9b:79:69:2a:f8:6a:3e:f8:
         52:dc:fa:9f:58:8a:f5:31:eb:fd:70:eb:bb:76:a9:9d:e9:f1:
         7e:30:69:76:c5:da:7a:14:4e:9e:13:a4:86:c4:d7:e1:64:ad:
         36:0f:7c:ba:fd:6d:ee:bf:72:57:77:ae:69:f5:d0:8e:de:f6:
         e5:9b:31:97:98:7d:31:92:ef:b9:17:19:67:86:ea:15:9d:2c:
         92:c1:d4:3b:0b:af:e8:65:e6:57:e0:c1:76:30:ae:0a:26:10:
         a1:04:e7:cf:da:d6:a7:71:6d:56:fa:80:63:90:47:e7:b4:a5:
         dd:ee:71:60:4a:6e:ae:38:f8:13:c1:a5:43:9e:7a:2f:85:d7:
         be:2a:80:1f:ae:8d:6c:43:de:d2:7c:ac:b7:fc:68:05:60:f3:
         a9:c7:65:06:5c:3f:95:2a:23:74:92:25:af:71:2f:30:01:a4:
         e5:ed:0d:ed:87:ea:5f:08:bc:b9:f2:4c:65:1b:2f:c1:70:26:
         5d:63:10:95:7a:bf:a5:ab:59:32:95:04:11:12:56:71:c5:9e:
         86:70:94:06:00:b4:e0:41:ad:b0:d8:21:b3:44:22:16:f5:5b:
         72:e5:f0:4a:76:3e:c6:ba:49:8a:5a:b2:d1:aa:59:06:c7:e6:
         3c:57:e5:da:ca:72:75:ad:f4:d7:f4:86:dc:75:4c:7c:f0:af:
         e1:07:64:8a:f2:a7:f5:b9:2d:c0:a3:9f:01:e6:f5:de:42:2c:
         8a:21:73:30:10:73:92:8d:d4:bf:f1:8d:70:b5:10:85:76:8b:
         d6:94:25:9a:31:3e:7f:f9:11:29:b7:0a:a1:ec:1d:33:b2:44:
         75:cd:2a:f5:d1:52:c5:08:33:04:fd:5b:e3:8f:95:20:2f:51:
         96:33:08:21:ee:cb:d0:ab:ee:c7:df:c4:33:be:f8:8d:06:0b:
         04:d5:c7:4f:1d:19:01:74:2f:28:79:28:0e:73:94:69:68:e7:
         68:ad:1d:9d:81:52:4b:f7:c5:8b:ac:90:f6:cf:dc:6b:84:a6:
         14:02:3a:3c:d3:9a:64:43:77:77:ad:74:c0:83:e9:b9:36:77:
         14:8c:0c:ce:d2:86:2b:fd:87:be:7d:8b:d7:fe:3a:d8:54:09:
         7e:25:3c:31:09:c7:18:ef:89:6f:49:c4:69:e5:b0:eb:0c:8e:
         2e:31:b0:ba:26:42:73:49:32:1a:10:8a:3d:3a:02:50:de:b2:
         06:e6:e4:f3:5e:fb:40:5f
-----BEGIN CERTIFICATE-----
MIIFMjCCAxqgAwIBAgIBATANBgkqhkiG9w0BAQ0FADA7MQswCQYDVQQGEwJVUzEa
MBgGA1UEAwwRY2EuZXRjZC5sb2NhbGhvc3QxEDAOBgNVBAoMB2V0Y2QtY2EwHhcN
MTcwNzExMDUxNzIxWhcNMjcwNzA5MDUxNzIxWjAsMRAwDgYDVQQKDAdldGNkLWNh
MRgwFgYDVQQDDA9ldGNkMC5sb2NhbGhvc3QwggIiMA0GCSqGSIb3DQEBAQUAA4IC
DwAwggIKAoICAQDkdNkAQI6TseRkJ7NCAlH1K9me2PYW9oL85HehA2GXcTPaPhUz
cK87X/A9/+RAgePEmqQm1r7G9eFJk/3S1MdPJ1JEVvmOotzurkG4t7v/DSkUd5or
jWGIARviTC8M7bG2uQxKrV2ycFhOR9vU6eYwihn9cwLq+wr14TniVOAMactfguat
H2zYFNzaE2Nrqmv8PlQiSlN97MY2xyf6McFcPIZpD3UxSTQIzDobTw5m13ztn4CR
uIJDG3m+BBHH96Uizy16fcjnnV4q1ZnsFPs20nVUps7sjKBl9Lsv+gsrm7L9nZ+e
YKUuEPmwrTAPOkGM183coFeBMnp+lcJffbC4dApJOx941lDtSW7Bc8UEd4xiLm9o
Yuu4OJHnwHQmPdUj43akMIy227gkBTEaeKFWOaQPPfbze4tTg/hVrZY3x61+NF5h
ZwrKXkxjIKw0+b9FOAdDWfb5WlpywTXHhi+40OC46Yj0KshpAu8fwjMlhxGC1oyD
YFW6QKMeaOCEGMQFVvVG2WAYLjL7GaHn8DmO3axUWLvhtW0g1e0xkKP5wBlvrG/H
ommZn94mtdchRPuWOWzHRb5PNPxp5NP0GuZSMhN2z+wy1L/sbmnrET4EMvpBecWd
s2w3qoyB6FkRLdIDAcuoxFXp/6P0klekyj9nQS/Sn3TX2uyC3ylxeWfLRwIDAQAB
o1AwTjAJBgNVHRMEAjAAMB0GA1UdJQQWMBQGCCsGAQUFBwMCBggrBgEFBQcDATAL
BgNVHQ8EBAMCBaAwFQYDVR0RBA4wDIcEfwAAAYcECgABCjANBgkqhkiG9w0BAQ0F
AAOCAgEAIfQY/Mwcpb8gQxDWWDytCRJj7HSTuXTdVbGdluZTRl8dKxero6yM7yZ7
ooISaJt5aSr4aj74Utz6n1iK9THr/XDru3apnenxfjBpdsXaehROnhOkhsTX4WSt
Ng98uv1t7r9yV3euafXQjt725Zsxl5h9MZLvuRcZZ4bqFZ0sksHUOwuv6GXmV+DB
djCuCiYQoQTnz9rWp3FtVvqAY5BH57Sl3e5xYEpurjj4E8GlQ556L4XXviqAH66N
bEPe0nyst/xoBWDzqcdlBlw/lSojdJIlr3EvMAGk5e0N7YfqXwi8ufJMZRsvwXAm
XWMQlXq/patZMpUEERJWccWehnCUBgC04EGtsNghs0QiFvVbcuXwSnY+xrpJilqy
0apZBsfmPFfl2spyda301/SG3HVMfPCv4QdkivKn9bktwKOfAeb13kIsiiFzMBBz
ko3Uv/GNcLUQhXaL1pQlmjE+f/kRKbcKoewdM7JEdc0q9dFSxQgzBP1b44+VIC9R
ljMIIe7L0Kvux9/EM774jQYLBNXHTx0ZAXQvKHkoDnOUaWjnaK0dnYFSS/fFi6yQ
9s/ca4SmFAI6PNOaZEN3d610wIPpuTZ3FIwMztKGK/2Hvn2L1/462FQJfiU8MQnH
GO+Jb0nEaeWw6wyOLjGwuiZCc0kyGhCKPToCUN6yBubk8177QF8=
-----END CERTIFICATE-----
