Certificate:
    Data:
        Version: 3 (0x2)
        Serial Number: 2 (0x2)
    Signature Algorithm: sha512WithRSAEncryption
        Issuer: C=US, CN=ca.etcd.localhost, O=etcd-ca
        Validity
            Not Before: May 31 15:21:47 2017 GMT
            Not After : May 29 15:21:47 2027 GMT
        Subject: O=etcd-ca, CN=etcd-client
        Subject Public Key Info:
            Public Key Algorithm: rsaEncryption
                Public-Key: (4096 bit)
                Modulus:
                    00:9c:b7:61:32:f0:d0:4f:76:bd:e9:61:8e:cb:f0:
                    64:a4:48:e1:7d:1d:b8:53:b3:47:56:ae:21:6b:13:
                    1c:90:dd:62:9f:c6:44:d7:1a:ab:5f:1f:45:28:63:
                    57:ff:60:c8:c7:9e:73:e4:a8:08:ea:05:b8:3e:92:
                    ec:c6:90:07:56:d2:7f:33:7b:ba:ea:e3:e8:fb:11:
                    db:7f:c1:20:cd:23:5b:bf:44:50:a2:3e:59:5e:14:
                    52:6c:27:d1:bd:6c:3c:d4:14:4a:7a:ca:d4:7e:38:
                    98:8d:85:1b:e2:7b:89:c0:1c:61:c2:e4:70:23:9d:
                    f1:72:02:ce:59:3b:65:66:6d:04:54:32:0f:6d:ea:
                    5a:0d:68:7b:40:bb:a2:95:0d:a7:60:c2:fc:33:5f:
                    26:66:3e:c9:3f:76:b2:5a:0a:4d:8f:a2:e3:c5:72:
                    e3:ef:5e:06:fc:38:2d:87:12:de:2b:62:91:1b:b4:
                    45:be:c3:8f:cc:21:36:f1:6f:a3:b6:4d:c0:18:09:
                    17:0f:6d:d3:bd:a9:25:8d:64:9b:a8:ca:c0:bc:be:
                    96:a4:51:df:a0:48:c1:07:87:b6:c5:5a:3b:8c:6f:
                    9c:b0:ac:97:d2:41:05:7c:1d:bf:7c:f7:fa:26:ab:
                    ac:d6:54:60:4e:21:41:2a:aa:47:84:cb:b3:3d:e2:
                    01:c3:3f:7a:32:26:e6:ca:cb:c3:fc:2e:e5:63:4f:
                    9f:47:44:a7:a5:b1:55:23:ce:9d:75:a1:08:02:f7:
                    db:f2:63:5e:3a:c2:35:f0:ad:a9:a7:88:e2:95:7a:
                    2d:c0:0e:19:be:83:79:bf:48:3b:51:5b:e7:67:6b:
                    45:db:69:ab:2e:23:f4:86:1f:2b:e6:c0:90:dc:e6:
                    16:8f:82:bc:43:ef:c3:76:23:68:d9:1e:99:37:6f:
                    40:37:d0:b2:49:d3:da:1f:49:3a:c3:f8:19:e1:66:
                    a7:9a:22:56:c6:ce:f7:85:df:37:f7:f4:2f:74:55:
                    66:f3:a9:f5:11:bb:67:97:3b:31:4c:fb:e7:67:1c:
                    90:6b:f2:2f:56:bb:6d:cf:28:e0:bb:35:87:ad:dc:
                    69:02:e3:79:24:38:f2:75:cf:52:81:c1:42:c8:f4:
                    4e:08:b4:7c:f5:fc:f4:1a:5a:e4:6f:74:65:80:2a:
                    12:ad:50:73:62:08:23:6c:30:a1:89:c6:92:bf:1b:
                    6c:22:8f:38:f3:d2:9e:c5:6d:7a:82:91:63:3d:ec:
                    58:ee:d5:cf:97:eb:03:6d:14:fc:42:3a:a4:df:7a:
                    f4:c6:c1:37:aa:37:98:e0:46:c2:99:e4:5f:7b:f3:
                    1f:ec:52:26:8a:d5:f1:b8:97:d2:0b:17:b0:aa:d2:
                    b5:8a:a7
                Exponent: 65537 (0x10001)
        X509v3 extensions:
            X509v3 Basic Constraints: 
                CA:FALSE
            X509v3 Extended Key Usage: 
                TLS Web Client Authentication
            X509v3 Key Usage: 
                Digital Signature, Key Encipherment
    Signature Algorithm: sha512WithRSAEncryption
         b6:a5:6c:5b:8c:a4:dc:5c:a5:43:f0:c0:47:49:15:c2:81:d9:
         58:b7:53:41:f1:cc:e8:14:f2:2e:76:59:2d:d7:08:3e:e1:72:
         52:0a:30:79:fc:76:a3:ee:a6:d1:07:7d:bc:4b:97:62:5b:e0:
         69:62:7e:4d:0e:f7:2b:be:11:c2:56:3d:31:89:12:c1:0d:34:
         82:87:e8:d6:aa:92:d4:5c:d6:7c:b1:46:4d:87:de:7d:20:12:
         7f:35:76:f6:27:ef:0c:84:c3:e9:95:dd:c6:07:7e:d5:4d:5d:
         c2:e7:63:5b:cd:59:59:ec:87:32:64:10:19:9b:8d:e1:b1:8a:
         28:a3:0a:ba:30:8c:9d:15:63:ea:a2:42:90:34:7b:a7:aa:9b:
         95:b2:5e:a6:0d:50:29:67:8f:2e:c6:f9:8d:0b:3a:e3:f5:11:
         27:d3:92:97:5a:62:f8:b2:ef:c4:b2:2a:c7:32:c6:13:bf:c8:
         89:76:19:43:bb:d0:52:0c:14:af:f2:67:9d:f6:32:2d:2f:18:
         e0:ac:5f:d0:e6:89:43:0b:06:8f:f0:33:78:86:cb:e6:07:64:
         62:7d:89:ca:06:58:23:a8:9b:39:2a:38:9f:18:93:f0:8b:d2:
         bb:5f:b8:f7:55:46:1a:01:bf:c1:ea:b5:9c:01:72:65:ca:fa:
         ec:63:ef:58:59:d0:7c:08:cf:25:3d:45:fb:4e:8d:51:7d:83:
         74:31:2f:0a:a1:38:02:c6:a3:77:6f:c9:10:87:72:14:e9:cb:
         89:82:e1:ce:3f:86:4e:66:a1:ca:40:bd:3a:27:81:a4:75:6c:
         25:8e:f0:16:b8:9c:45:3a:26:b4:06:53:24:e4:f9:d5:5f:1d:
         8e:55:23:cb:44:1f:90:dc:5e:74:b1:c3:4e:6d:8a:60:de:9a:
         45:16:8c:05:66:c4:84:9e:76:d9:d8:56:25:12:ff:9b:fc:97:
         4d:05:32:8a:9a:5e:ff:a4:e2:b0:64:1a:31:4b:b1:37:4a:fe:
         6b:a3:c5:49:ff:75:bf:1b:d0:81:16:70:a5:5a:af:75:ed:ed:
         ed:95:15:57:68:5d:36:57:06:b5:81:15:6a:9f:03:78:5c:8e:
         9f:51:89:27:de:a6:ad:f3:5b:11:0a:04:be:7d:ca:a1:c5:f2:
         1a:c0:63:3c:67:f8:b7:f6:05:98:9e:b7:64:69:e8:15:69:fa:
         05:5f:20:dd:be:a2:bb:c0:8b:c4:f8:a9:96:04:6b:86:a5:18:
         43:eb:6d:1f:b9:d8:76:46:e2:df:a5:0e:bc:d8:43:62:9f:6f:
         bc:77:2b:30:50:a1:de:4d:cd:58:a9:4b:49:9f:ee:88:ff:be:
         73:ff:e1:c0:f5:04:af:48
-----BEGIN CERTIFICATE-----
MIIFDTCCAvWgAwIBAgIBAjANBgkqhkiG9w0BAQ0FADA7MQswCQYDVQQGEwJVUzEa
MBgGA1UEAwwRY2EuZXRjZC5sb2NhbGhvc3QxEDAOBgNVBAoMB2V0Y2QtY2EwHhcN
MTcwNTMxMTUyMTQ3WhcNMjcwNTI5MTUyMTQ3WjAoMRAwDgYDVQQKDAdldGNkLWNh
MRQwEgYDVQQDDAtldGNkLWNsaWVudDCCAiIwDQYJKoZIhvcNAQEBBQADggIPADCC
AgoCggIBAJy3YTLw0E92velhjsvwZKRI4X0duFOzR1auIWsTHJDdYp/GRNcaq18f
RShjV/9gyMeec+SoCOoFuD6S7MaQB1bSfzN7uurj6PsR23/BIM0jW79EUKI+WV4U
Umwn0b1sPNQUSnrK1H44mI2FG+J7icAcYcLkcCOd8XICzlk7ZWZtBFQyD23qWg1o
e0C7opUNp2DC/DNfJmY+yT92sloKTY+i48Vy4+9eBvw4LYcS3itikRu0Rb7Dj8wh
NvFvo7ZNwBgJFw9t072pJY1km6jKwLy+lqRR36BIwQeHtsVaO4xvnLCsl9JBBXwd
v3z3+iarrNZUYE4hQSqqR4TLsz3iAcM/ejIm5srLw/wu5WNPn0dEp6WxVSPOnXWh
CAL32/JjXjrCNfCtqaeI4pV6LcAOGb6Deb9IO1Fb52drRdtpqy4j9IYfK+bAkNzm
Fo+CvEPvw3YjaNkemTdvQDfQsknT2h9JOsP4GeFmp5oiVsbO94XfN/f0L3RVZvOp
9RG7Z5c7MUz752cckGvyL1a7bc8o4Ls1h63caQLjeSQ48nXPUoHBQsj0Tgi0fPX8
9Bpa5G90ZYAqEq1Qc2III2wwoYnGkr8bbCKPOPPSnsVteoKRYz3sWO7Vz5frA20U
/EI6pN969MbBN6o3mOBGwpnkX3vzH+xSJorV8biX0gsXsKrStYqnAgMBAAGjLzAt
MAkGA1UdEwQCMAAwEwYDVR0lBAwwCgYIKwYBBQUHAwIwCwYDVR0PBAQDAgWgMA0G
CSqGSIb3DQEBDQUAA4ICAQC2pWxbjKTcXKVD8MBHSRXCgdlYt1NB8czoFPIudlkt
1wg+4XJSCjB5/Haj7qbRB328S5diW+BpYn5NDvcrvhHCVj0xiRLBDTSCh+jWqpLU
XNZ8sUZNh959IBJ/NXb2J+8MhMPpld3GB37VTV3C52NbzVlZ7IcyZBAZm43hsYoo
owq6MIydFWPqokKQNHunqpuVsl6mDVApZ48uxvmNCzrj9REn05KXWmL4su/EsirH
MsYTv8iJdhlDu9BSDBSv8med9jItLxjgrF/Q5olDCwaP8DN4hsvmB2RifYnKBlgj
qJs5KjifGJPwi9K7X7j3VUYaAb/B6rWcAXJlyvrsY+9YWdB8CM8lPUX7To1RfYN0
MS8KoTgCxqN3b8kQh3IU6cuJguHOP4ZOZqHKQL06J4GkdWwljvAWuJxFOia0BlMk
5PnVXx2OVSPLRB+Q3F50scNObYpg3ppFFowFZsSEnnbZ2FYlEv+b/JdNBTKKml7/
pOKwZBoxS7E3Sv5ro8VJ/3W/G9CBFnClWq917e3tlRVXaF02Vwa1gRVqnwN4XI6f
UYkn3qat81sRCgS+fcqhxfIawGM8Z/i39gWYnrdkaegVafoFXyDdvqK7wIvE+KmW
BGuGpRhD620fudh2RuLfpQ682ENin2+8dyswUKHeTc1YqUtJn+6I/75z/+HA9QSv
SA==
-----END CERTIFICATE-----
